; Function Attrs: mustprogress uwtable
define noundef nonnull ptr @_ZN7rocksdb25NewHashSkipListRepFactoryEmii(i64 noundef %bucket_count, i32 noundef %skiplist_height, i32 noundef %skiplist_branching_factor) local_unnamed_addr #3 personality ptr @__gxx_personality_v0 {
entry:
  %ref.tmp.i.i = alloca %"class.std::__cxx11::basic_string", align 8
  %ref.tmp2.i.i = alloca %"class.std::allocator.5", align 1
  %call = tail call noalias noundef nonnull dereferenceable(48) ptr @_Znwm(i64 noundef 48) #23
  %options_.i.i.i.i = getelementptr inbounds i8, ptr %call, i64 8
  tail call void @llvm.memset.p0.i64(ptr noundef nonnull align 8 dereferenceable(24) %options_.i.i.i.i, i8 0, i64 24, i1 false)
  store ptr getelementptr inbounds ({ [25 x ptr] }, ptr @_ZTVN7rocksdb12_GLOBAL__N_122HashSkipListRepFactoryE, i64 0, i32 0, i64 2), ptr %call, align 8
  %options_2.i = getelementptr inbounds i8, ptr %call, i64 32
  store i64 %bucket_count, ptr %options_2.i, align 8
  %skiplist_height5.i = getelementptr inbounds i8, ptr %call, i64 40
  store i32 %skiplist_height, ptr %skiplist_height5.i, align 8
  %skiplist_branching_factor7.i = getelementptr inbounds i8, ptr %call, i64 44
  store i32 %skiplist_branching_factor, ptr %skiplist_branching_factor7.i, align 4
  call void @llvm.lifetime.start.p0(i64 32, ptr nonnull %ref.tmp.i.i)
  call void @llvm.lifetime.start.p0(i64 1, ptr nonnull %ref.tmp2.i.i)
  call void @_ZNSaIcEC1Ev(ptr noundef nonnull align 1 dereferenceable(1) %ref.tmp2.i.i) #22
  %call.i2.i.i = invoke noundef ptr @_ZNSt7__cxx1112basic_stringIcSt11char_traitsIcESaIcEE13_M_local_dataEv(ptr noundef nonnull align 8 dereferenceable(32) %ref.tmp.i.i)
          to label %call.i.noexc.i.i unwind label %lpad.i.i

call.i.noexc.i.i:                                 ; preds = %entry
  invoke void @_ZNSt7__cxx1112basic_stringIcSt11char_traitsIcESaIcEE12_Alloc_hiderC1EPcRKS3_(ptr noundef nonnull align 8 dereferenceable(8) %ref.tmp.i.i, ptr noundef %call.i2.i.i, ptr noundef nonnull align 1 dereferenceable(1) %ref.tmp2.i.i)
          to label %.noexc.i.i unwind label %lpad.i.i

.noexc.i.i:                                       ; preds = %call.i.noexc.i.i
  invoke void @_ZNSt7__cxx1112basic_stringIcSt11char_traitsIcESaIcEE12_M_constructIPKcEEvT_S8_St20forward_iterator_tag(ptr noundef nonnull align 8 dereferenceable(32) %ref.tmp.i.i, ptr noundef nonnull @.str.5, ptr noundef nonnull getelementptr inbounds ([30 x i8], ptr @.str.5, i64 0, i64 29))
          to label %invoke.cont.i.i unwind label %lpad.i.i.i

lpad.i.i.i:                                       ; preds = %.noexc.i.i
  %0 = landingpad { ptr, i32 }
          cleanup
  call void @_ZNSaIcED2Ev(ptr noundef nonnull align 1 dereferenceable(1) %ref.tmp.i.i) #22
  br label %ehcleanup.i.i

invoke.cont.i.i:                                  ; preds = %.noexc.i.i
  invoke void @_ZN7rocksdb12Configurable15RegisterOptionsERKNSt7__cxx1112basic_stringIcSt11char_traitsIcESaIcEEEPvPKSt13unordered_mapIS6_NS_14OptionTypeInfoESt4hashIS6_ESt8equal_toIS6_ESaISt4pairIS7_SB_EEE(ptr noundef nonnull align 8 dereferenceable(32) %call, ptr noundef nonnull align 8 dereferenceable(32) %ref.tmp.i.i, ptr noundef nonnull %options_2.i, ptr noundef nonnull @_ZN7rocksdb12_GLOBAL__N_118hash_skiplist_infoB5cxx11E)
          to label %invoke.cont unwind label %lpad3.i.i

lpad.i.i:                                         ; preds = %call.i.noexc.i.i, %entry
  %1 = landingpad { ptr, i32 }
          cleanup
  br label %ehcleanup.i.i

lpad3.i.i:                                        ; preds = %invoke.cont.i.i
  %2 = landingpad { ptr, i32 }
          cleanup
  call void @_ZNSt7__cxx1112basic_stringIcSt11char_traitsIcESaIcEED1Ev(ptr noundef nonnull align 8 dereferenceable(32) %ref.tmp.i.i) #22
  br label %ehcleanup.i.i

ehcleanup.i.i:                                    ; preds = %lpad3.i.i, %lpad.i.i, %lpad.i.i.i
  %.pn.i.i = phi { ptr, i32 } [ %2, %lpad3.i.i ], [ %1, %lpad.i.i ], [ %0, %lpad.i.i.i ]
  call void @_ZNSaIcED1Ev(ptr noundef nonnull align 1 dereferenceable(1) %ref.tmp2.i.i) #22
  call void @_ZN7rocksdb18MemTableRepFactoryD2Ev(ptr noundef nonnull align 8 dereferenceable(32) %call) #22
  call void @_ZdlPv(ptr noundef nonnull %call) #20
  resume { ptr, i32 } %.pn.i.i

invoke.cont:                                      ; preds = %invoke.cont.i.i
  call void @_ZNSt7__cxx1112basic_stringIcSt11char_traitsIcESaIcEED1Ev(ptr noundef nonnull align 8 dereferenceable(32) %ref.tmp.i.i) #22
  call void @_ZNSaIcED1Ev(ptr noundef nonnull align 1 dereferenceable(1) %ref.tmp2.i.i) #22
  call void @llvm.lifetime.end.p0(i64 32, ptr nonnull %ref.tmp.i.i)
  call void @llvm.lifetime.end.p0(i64 1, ptr nonnull %ref.tmp2.i.i)
  ret ptr %call
}